; Function Attrs: nounwind uwtable
define ptr @l_Lake_buildStaticLib(ptr noundef %0, ptr noundef %1, i8 noundef zeroext %2, ptr noundef %3, ptr noundef %4, ptr noundef %5, ptr noundef %6, ptr noundef %7, ptr noundef %8) local_unnamed_addr #0 {
  %10 = load ptr, ptr @l_Lake_buildStaticLib___closed__1, align 8, !tbaa !9
  %11 = tail call ptr @l_Lake_Job_collectArray___rarg(ptr noundef %1, ptr noundef %10) #5
  tail call void @lean_inc_heartbeat() #5
  %12 = tail call noalias ptr @mi_malloc_small(i64 noundef 40) #5
  %13 = icmp eq ptr %12, null
  br i1 %13, label %14, label %lean_alloc_closure.exit

14:                                               ; preds = %9
  tail call void @lean_internal_panic_out_of_memory() #6
  unreachable

lean_alloc_closure.exit:                          ; preds = %9
  %15 = zext i8 %2 to i64
  %16 = shl nuw nsw i64 %15, 1
  %17 = or disjoint i64 %16, 1
  %18 = inttoptr i64 %17 to ptr
  %19 = getelementptr inbounds nuw i8, ptr %12, i64 4
  store i32 1, ptr %12, align 4, !tbaa !4
  store i32 -184549336, ptr %19, align 4
  %20 = getelementptr inbounds nuw i8, ptr %12, i64 8
  store ptr @l_Lake_buildStaticLib___lambda__3___boxed, ptr %20, align 8, !tbaa !9
  %21 = getelementptr inbounds nuw i8, ptr %12, i64 16
  store i16 9, ptr %21, align 8, !tbaa !15
  %22 = getelementptr inbounds nuw i8, ptr %12, i64 18
  store i16 2, ptr %22, align 2, !tbaa !15
  %23 = getelementptr inbounds nuw i8, ptr %12, i64 24
  store ptr %0, ptr %23, align 8, !tbaa !9
  %24 = getelementptr inbounds nuw i8, ptr %12, i64 32
  store ptr %18, ptr %24, align 8, !tbaa !9
  %25 = load ptr, ptr @l_Task_Priority_default, align 8, !tbaa !9
  %26 = tail call ptr @l_Lake_Job_mapM___at_Lake_buildStaticLib___spec__1(ptr noundef %11, ptr noundef nonnull %12, ptr noundef %25, i8 noundef zeroext 0, ptr noundef %3, ptr noundef %4, ptr noundef %5, ptr noundef %6, ptr noundef %7, ptr noundef %8)
  ret ptr %26
}